; Function Attrs: nounwind sspstrong uwtable
define internal void @sdhci_sysbus_unrealize(ptr noundef %dev) #0 {
entry:
  %call.i = tail call ptr @object_dynamic_cast_assert(ptr noundef %dev, ptr noundef nonnull @.str.151, ptr noundef nonnull @.str.153, i32 noundef 124, ptr noundef nonnull @__func__.SYSBUS_SDHCI) #12
  %fifo_buffer.i = getelementptr inbounds nuw i8, ptr %call.i, i64 3248
  %0 = load ptr, ptr %fifo_buffer.i, align 16
  tail call void @g_free(ptr noundef %0) #12
  store ptr null, ptr %fifo_buffer.i, align 16
  %dma_mr = getelementptr inbounds nuw i8, ptr %call.i, i64 3104
  %1 = load ptr, ptr %dma_mr, align 16
  %tobool.not = icmp eq ptr %1, null
  br i1 %tobool.not, label %if.end, label %if.then

if.then:                                          ; preds = %entry
  %dma_as = getelementptr inbounds nuw i8, ptr %call.i, i64 3096
  %2 = load ptr, ptr %dma_as, align 8
  tail call void @address_space_destroy(ptr noundef %2) #12
  br label %if.end

if.end:                                           ; preds = %if.then, %entry
  ret void
}